target datalayout = "e-m:e-p270:32:32-p271:32:32-p272:64:64-i64:64-i128:128-f80:128-n8:16:32:64-S128"
target triple = "x86_64-pc-linux-gnu"

%struct._object = type { %union.anon, ptr }
%union.anon = type { i64 }
%struct.PyVarObject = type { %struct._object, i64 }
%struct.anon = type { i32, i32 }

; Function Attrs: alwaysinline nounwind uwtable
define internal i32 @_Py_IsImmortal(ptr noundef %0) #4 {
  %2 = alloca ptr, align 8
  store ptr %0, ptr %2, align 8, !tbaa !3
  %3 = load ptr, ptr %2, align 8, !tbaa !3
  %4 = getelementptr inbounds nuw %struct._object, ptr %3, i32 0, i32 0
  %5 = getelementptr inbounds nuw %struct.anon, ptr %4, i32 0, i32 0
  %6 = load i32, ptr %5, align 8, !tbaa !50
  %7 = icmp slt i32 %6, 0
  %8 = zext i1 %7 to i32
  ret i32 %8
}

; Function Attrs: inlinehint nounwind uwtable
define internal i64 @Py_SIZE(ptr noundef %0) #3 {
  %2 = alloca ptr, align 8
  store ptr %0, ptr %2, align 8, !tbaa !3
  %3 = load ptr, ptr %2, align 8, !tbaa !3
  %4 = getelementptr inbounds nuw %struct.PyVarObject, ptr %3, i32 0, i32 1
  %5 = load i64, ptr %4, align 8, !tbaa !53
  ret i64 %5
}

; Function Attrs: nounwind uwtable
define internal void @_Py_FreeCharPArray(ptr noundef %0) #0 {
  %2 = alloca ptr, align 8
  %3 = alloca i64, align 8
  store ptr %0, ptr %2, align 8, !tbaa !29
  call void @llvm.lifetime.start.p0(i64 8, ptr %3) #13
  store i64 0, ptr %3, align 8, !tbaa !10
  br label %4

4:                                                ; preds = %15, %1
  %5 = load ptr, ptr %2, align 8, !tbaa !29
  %6 = load i64, ptr %3, align 8, !tbaa !10
  %7 = getelementptr ptr, ptr %5, i64 %6
  %8 = load ptr, ptr %7, align 8, !tbaa !28
  %9 = icmp ne ptr %8, null
  br i1 %9, label %10, label %18

10:                                               ; preds = %4
  %11 = load ptr, ptr %2, align 8, !tbaa !29
  %12 = load i64, ptr %3, align 8, !tbaa !10
  %13 = getelementptr ptr, ptr %11, i64 %12
  %14 = load ptr, ptr %13, align 8, !tbaa !28
  call void @PyMem_Free(ptr noundef %14)
  br label %15

15:                                               ; preds = %10
  %16 = load i64, ptr %3, align 8, !tbaa !10
  %17 = add i64 %16, 1
  store i64 %17, ptr %3, align 8, !tbaa !10
  br label %4, !llvm.loop !52

18:                                               ; preds = %4
  %19 = load ptr, ptr %2, align 8, !tbaa !29
  call void @PyMem_Free(ptr noundef %19)
  call void @llvm.lifetime.end.p0(i64 8, ptr %3) #13
  ret void
}

; Function Attrs: inlinehint nounwind uwtable
define internal void @Py_XDECREF(ptr noundef %0) #3 {
  %2 = alloca ptr, align 8
  store ptr %0, ptr %2, align 8, !tbaa !3
  %3 = load ptr, ptr %2, align 8, !tbaa !3
  %4 = icmp ne ptr %3, null
  br i1 %4, label %5, label %7

5:                                                ; preds = %1
  %6 = load ptr, ptr %2, align 8, !tbaa !3
  call void @Py_DECREF(ptr noundef %6)
  br label %7

7:                                                ; preds = %5, %1
  ret void
}

; Function Attrs: alwaysinline nounwind uwtable
define internal void @Py_DECREF(ptr noundef %0) #4 {
  %2 = alloca ptr, align 8
  store ptr %0, ptr %2, align 8, !tbaa !3
  %3 = load ptr, ptr %2, align 8, !tbaa !3
  %4 = call i32 @_Py_IsImmortal(ptr noundef %3)
  %5 = icmp ne i32 %4, 0
  br i1 %5, label %6, label %7

6:                                                ; preds = %1
  br label %16

7:                                                ; preds = %1
  %8 = load ptr, ptr %2, align 8, !tbaa !3
  %9 = getelementptr inbounds nuw %struct._object, ptr %8, i32 0, i32 0
  %10 = getelementptr inbounds nuw %struct.anon, ptr %9, i32 0, i32 0
  %11 = load i32, ptr %10, align 8, !tbaa !50
  %12 = add i32 %11, -1
  store i32 %12, ptr %10, align 8, !tbaa !50
  %13 = icmp eq i32 %12, 0
  br i1 %13, label %14, label %16

14:                                               ; preds = %7
  %15 = load ptr, ptr %2, align 8, !tbaa !3
  call void @_Py_Dealloc(ptr noundef %15)
  br label %16

16:                                               ; preds = %6, %14, %7
  ret void
}

; Function Attrs: inlinehint nounwind uwtable
define internal i64 @PyBytes_GET_SIZE(ptr noundef %0) #3 {
  %2 = alloca ptr, align 8
  %3 = alloca ptr, align 8
  store ptr %0, ptr %2, align 8, !tbaa !3
  call void @llvm.lifetime.start.p0(i64 8, ptr %3) #13
  %4 = load ptr, ptr %2, align 8, !tbaa !3
  store ptr %4, ptr %3, align 8, !tbaa !38
  %5 = load ptr, ptr %3, align 8, !tbaa !38
  %6 = call i64 @Py_SIZE(ptr noundef %5)
  call void @llvm.lifetime.end.p0(i64 8, ptr %3) #13
  ret i64 %6
}

; Function Attrs: nounwind uwtable
define internal ptr @_PySequence_BytesToCharpArray(ptr noundef %0) #0 {
  %2 = alloca ptr, align 8
  %3 = alloca ptr, align 8
  %4 = alloca ptr, align 8
  %5 = alloca i64, align 8
  %6 = alloca i64, align 8
  %7 = alloca ptr, align 8
  %8 = alloca i64, align 8
  %9 = alloca i32, align 4
  %10 = alloca ptr, align 8
  store ptr %0, ptr %3, align 8, !tbaa !3
  call void @llvm.lifetime.start.p0(i64 8, ptr %4) #13
  call void @llvm.lifetime.start.p0(i64 8, ptr %5) #13
  call void @llvm.lifetime.start.p0(i64 8, ptr %6) #13
  call void @llvm.lifetime.start.p0(i64 8, ptr %7) #13
  store ptr null, ptr %7, align 8, !tbaa !3
  call void @llvm.lifetime.start.p0(i64 8, ptr %8) #13
  %11 = load ptr, ptr %3, align 8, !tbaa !3
  %12 = call i64 @PySequence_Size(ptr noundef %11)
  store i64 %12, ptr %6, align 8, !tbaa !10
  %13 = load i64, ptr %6, align 8, !tbaa !10
  %14 = icmp eq i64 %13, -1
  br i1 %14, label %15, label %16

15:                                               ; preds = %1
  store ptr null, ptr %2, align 8
  store i32 1, ptr %9, align 4
  br label %91

16:                                               ; preds = %1
  %17 = load i64, ptr %6, align 8, !tbaa !10
  %18 = icmp ugt i64 %17, 1152921504606846974
  br i1 %18, label %19, label %21

19:                                               ; preds = %16
  %20 = call ptr @PyErr_NoMemory()
  store ptr null, ptr %2, align 8
  store i32 1, ptr %9, align 4
  br label %91

21:                                               ; preds = %16
  %22 = load i64, ptr %6, align 8, !tbaa !10
  %23 = add i64 %22, 1
  %24 = mul i64 %23, 8
  %25 = call ptr @PyMem_Malloc(i64 noundef %24)
  store ptr %25, ptr %4, align 8, !tbaa !29
  %26 = load ptr, ptr %4, align 8, !tbaa !29
  %27 = icmp eq ptr %26, null
  br i1 %27, label %28, label %30

28:                                               ; preds = %21
  %29 = call ptr @PyErr_NoMemory()
  store ptr null, ptr %2, align 8
  store i32 1, ptr %9, align 4
  br label %91

30:                                               ; preds = %21
  store i64 0, ptr %5, align 8, !tbaa !10
  br label %31

31:                                               ; preds = %80, %30
  %32 = load i64, ptr %5, align 8, !tbaa !10
  %33 = load i64, ptr %6, align 8, !tbaa !10
  %34 = icmp slt i64 %32, %33
  br i1 %34, label %35, label %83

35:                                               ; preds = %31
  call void @llvm.lifetime.start.p0(i64 8, ptr %10) #13
  %36 = load ptr, ptr %3, align 8, !tbaa !3
  %37 = load i64, ptr %5, align 8, !tbaa !10
  %38 = call ptr @PySequence_GetItem(ptr noundef %36, i64 noundef %37)
  store ptr %38, ptr %7, align 8, !tbaa !3
  %39 = load ptr, ptr %7, align 8, !tbaa !3
  %40 = icmp eq ptr %39, null
  br i1 %40, label %41, label %45

41:                                               ; preds = %35
  %42 = load ptr, ptr %4, align 8, !tbaa !29
  %43 = load i64, ptr %5, align 8, !tbaa !10
  %44 = getelementptr ptr, ptr %42, i64 %43
  store ptr null, ptr %44, align 8, !tbaa !28
  store i32 5, ptr %9, align 4
  br label %77

45:                                               ; preds = %35
  %46 = load ptr, ptr %7, align 8, !tbaa !3
  %47 = call i32 @PyBytes_AsStringAndSize(ptr noundef %46, ptr noundef %10, ptr noundef null)
  %48 = icmp slt i32 %47, 0
  br i1 %48, label %49, label %53

49:                                               ; preds = %45
  %50 = load ptr, ptr %4, align 8, !tbaa !29
  %51 = load i64, ptr %5, align 8, !tbaa !10
  %52 = getelementptr ptr, ptr %50, i64 %51
  store ptr null, ptr %52, align 8, !tbaa !28
  store i32 5, ptr %9, align 4
  br label %77

53:                                               ; preds = %45
  %54 = load ptr, ptr %7, align 8, !tbaa !3
  %55 = call i64 @PyBytes_GET_SIZE(ptr noundef %54)
  %56 = add i64 %55, 1
  store i64 %56, ptr %8, align 8, !tbaa !10
  %57 = load i64, ptr %8, align 8, !tbaa !10
  %58 = call ptr @PyMem_Malloc(i64 noundef %57)
  %59 = load ptr, ptr %4, align 8, !tbaa !29
  %60 = load i64, ptr %5, align 8, !tbaa !10
  %61 = getelementptr ptr, ptr %59, i64 %60
  store ptr %58, ptr %61, align 8, !tbaa !28
  %62 = load ptr, ptr %4, align 8, !tbaa !29
  %63 = load i64, ptr %5, align 8, !tbaa !10
  %64 = getelementptr ptr, ptr %62, i64 %63
  %65 = load ptr, ptr %64, align 8, !tbaa !28
  %66 = icmp ne ptr %65, null
  br i1 %66, label %69, label %67

67:                                               ; preds = %53
  %68 = call ptr @PyErr_NoMemory()
  store i32 5, ptr %9, align 4
  br label %77

69:                                               ; preds = %53
  %70 = load ptr, ptr %4, align 8, !tbaa !29
  %71 = load i64, ptr %5, align 8, !tbaa !10
  %72 = getelementptr ptr, ptr %70, i64 %71
  %73 = load ptr, ptr %72, align 8, !tbaa !28
  %74 = load ptr, ptr %10, align 8, !tbaa !28
  %75 = load i64, ptr %8, align 8, !tbaa !10
  call void @llvm.memcpy.p0.p0.i64(ptr align 1 %73, ptr align 1 %74, i64 %75, i1 false)
  %76 = load ptr, ptr %7, align 8, !tbaa !3
  call void @Py_DECREF(ptr noundef %76)
  store i32 0, ptr %9, align 4
  br label %77

77:                                               ; preds = %67, %49, %41, %69
  call void @llvm.lifetime.end.p0(i64 8, ptr %10) #13
  %78 = load i32, ptr %9, align 4
  switch i32 %78, label %91 [
    i32 0, label %79
    i32 5, label %88
  ]

79:                                               ; preds = %77
  br label %80

80:                                               ; preds = %79
  %81 = load i64, ptr %5, align 8, !tbaa !10
  %82 = add i64 %81, 1
  store i64 %82, ptr %5, align 8, !tbaa !10
  br label %31, !llvm.loop !49

83:                                               ; preds = %31
  %84 = load ptr, ptr %4, align 8, !tbaa !29
  %85 = load i64, ptr %6, align 8, !tbaa !10
  %86 = getelementptr ptr, ptr %84, i64 %85
  store ptr null, ptr %86, align 8, !tbaa !28
  %87 = load ptr, ptr %4, align 8, !tbaa !29
  store ptr %87, ptr %2, align 8
  store i32 1, ptr %9, align 4
  br label %91

88:                                               ; preds = %77
  %89 = load ptr, ptr %7, align 8, !tbaa !3
  call void @Py_XDECREF(ptr noundef %89)
  %90 = load ptr, ptr %4, align 8, !tbaa !29
  call void @_Py_FreeCharPArray(ptr noundef %90)
  store ptr null, ptr %2, align 8
  store i32 1, ptr %9, align 4
  br label %91

91:                                               ; preds = %88, %83, %77, %28, %19, %15
  call void @llvm.lifetime.end.p0(i64 8, ptr %8) #13
  call void @llvm.lifetime.end.p0(i64 8, ptr %7) #13
  call void @llvm.lifetime.end.p0(i64 8, ptr %6) #13
  call void @llvm.lifetime.end.p0(i64 8, ptr %5) #13
  call void @llvm.lifetime.end.p0(i64 8, ptr %4) #13
  %92 = load ptr, ptr %2, align 8
  ret ptr %92
}