; Function Attrs: nounwind uwtable
define internal fastcc ptr @_PySequence_BytesToCharpArray(ptr noundef %0) unnamed_addr #0 {
  %2 = alloca ptr, align 8
  %3 = tail call i64 @PySequence_Size(ptr noundef %0) #12
  %4 = icmp eq i64 %3, -1
  br i1 %4, label %53, label %5

5:                                                ; preds = %1
  %6 = icmp ugt i64 %3, 1152921504606846974
  br i1 %6, label %7, label %9

7:                                                ; preds = %5
  %8 = tail call ptr @PyErr_NoMemory() #12
  br label %53

9:                                                ; preds = %5
  %10 = shl nuw nsw i64 %3, 3
  %11 = add nuw nsw i64 %10, 8
  %12 = tail call ptr @PyMem_Malloc(i64 noundef %11) #12
  %13 = icmp eq ptr %12, null
  br i1 %13, label %14, label %.preheader

.preheader:                                       ; preds = %9
  %.not47 = icmp eq i64 %3, 0
  br i1 %.not47, label %._crit_edge, label %.lr.ph

14:                                               ; preds = %9
  %15 = tail call ptr @PyErr_NoMemory() #12
  br label %53

.lr.ph:                                           ; preds = %.preheader, %37
  %.03346 = phi i64 [ %38, %37 ], [ 0, %.preheader ]
  call void @llvm.lifetime.start.p0(i64 8, ptr nonnull %2) #12
  %16 = call ptr @PySequence_GetItem(ptr noundef %0, i64 noundef %.03346) #12
  %17 = icmp eq ptr %16, null
  br i1 %17, label %40, label %18

18:                                               ; preds = %.lr.ph
  %19 = call i32 @PyBytes_AsStringAndSize(ptr noundef nonnull %16, ptr noundef nonnull %2, ptr noundef null) #12
  %20 = icmp slt i32 %19, 0
  br i1 %20, label %21, label %23

21:                                               ; preds = %18
  %22 = getelementptr ptr, ptr %12, i64 %.03346
  store ptr null, ptr %22, align 8, !tbaa !40
  br label %42

23:                                               ; preds = %18
  %24 = getelementptr i8, ptr %16, i64 16
  %.val = load i64, ptr %24, align 8, !tbaa !21
  %25 = add i64 %.val, 1
  %26 = call ptr @PyMem_Malloc(i64 noundef %25) #12
  %27 = getelementptr ptr, ptr %12, i64 %.03346
  store ptr %26, ptr %27, align 8, !tbaa !40
  %.not = icmp eq ptr %26, null
  br i1 %.not, label %28, label %30

28:                                               ; preds = %23
  %29 = call ptr @PyErr_NoMemory() #12
  br label %42

30:                                               ; preds = %23
  %31 = load ptr, ptr %2, align 8, !tbaa !40
  call void @llvm.memcpy.p0.p0.i64(ptr nonnull align 1 %26, ptr align 1 %31, i64 %25, i1 false)
  %32 = load i32, ptr %16, align 8, !tbaa !37
  %.not.i = icmp sgt i32 %32, -1
  br i1 %.not.i, label %33, label %37

33:                                               ; preds = %30
  %34 = add nsw i32 %32, -1
  store i32 %34, ptr %16, align 8, !tbaa !37
  %35 = icmp eq i32 %34, 0
  br i1 %35, label %36, label %37

36:                                               ; preds = %33
  call void @_Py_Dealloc(ptr noundef nonnull %16) #12
  br label %37

37:                                               ; preds = %30, %33, %36
  call void @llvm.lifetime.end.p0(i64 8, ptr nonnull %2) #12
  %38 = add nuw nsw i64 %.03346, 1
  %exitcond.not = icmp eq i64 %38, %3
  br i1 %exitcond.not, label %._crit_edge, label %.lr.ph, !llvm.loop !42

._crit_edge:                                      ; preds = %37, %.preheader
  %39 = getelementptr ptr, ptr %12, i64 %3
  store ptr null, ptr %39, align 8, !tbaa !40
  br label %53

40:                                               ; preds = %.lr.ph
  %41 = getelementptr ptr, ptr %12, i64 %.03346
  store ptr null, ptr %41, align 8, !tbaa !40
  call void @llvm.lifetime.end.p0(i64 8, ptr nonnull %2) #12
  br label %Py_XDECREF.exit

42:                                               ; preds = %21, %28
  call void @llvm.lifetime.end.p0(i64 8, ptr nonnull %2) #12
  %43 = load i32, ptr %16, align 8, !tbaa !37
  %.not.i.i = icmp sgt i32 %43, -1
  br i1 %.not.i.i, label %44, label %Py_XDECREF.exit

44:                                               ; preds = %42
  %45 = add nsw i32 %43, -1
  store i32 %45, ptr %16, align 8, !tbaa !37
  %46 = icmp eq i32 %45, 0
  br i1 %46, label %47, label %Py_XDECREF.exit

47:                                               ; preds = %44
  call void @_Py_Dealloc(ptr noundef nonnull %16) #12
  br label %Py_XDECREF.exit

Py_XDECREF.exit:                                  ; preds = %40, %42, %44, %47
  %48 = load ptr, ptr %12, align 8, !tbaa !40
  %.not6.i = icmp eq ptr %48, null
  br i1 %.not6.i, label %_Py_FreeCharPArray.exit, label %.lr.ph.i

.lr.ph.i:                                         ; preds = %Py_XDECREF.exit, %.lr.ph.i
  %49 = phi ptr [ %52, %.lr.ph.i ], [ %48, %Py_XDECREF.exit ]
  %.07.i = phi i64 [ %50, %.lr.ph.i ], [ 0, %Py_XDECREF.exit ]
  call void @PyMem_Free(ptr noundef nonnull %49) #12
  %50 = add i64 %.07.i, 1
  %51 = getelementptr ptr, ptr %12, i64 %50
  %52 = load ptr, ptr %51, align 8, !tbaa !40
  %.not.i39 = icmp eq ptr %52, null
  br i1 %.not.i39, label %_Py_FreeCharPArray.exit, label %.lr.ph.i, !llvm.loop !41

_Py_FreeCharPArray.exit:                          ; preds = %.lr.ph.i, %Py_XDECREF.exit
  call void @PyMem_Free(ptr noundef nonnull %12) #12
  br label %53

53:                                               ; preds = %1, %_Py_FreeCharPArray.exit, %._crit_edge, %14, %7
  %.032 = phi ptr [ null, %7 ], [ null, %14 ], [ null, %_Py_FreeCharPArray.exit ], [ %12, %._crit_edge ], [ null, %1 ]
  ret ptr %.032
}